libmathic.so.0 libmathic0v5	 #MINVER#
 MATHIC_VERSION_STRING@Base 1.0~git20160320
 _ZN6mathic10HelpAction10staticNameEv@Base 1.0~git20130827
 _ZN6mathic10HelpAction13directOptionsESt6vectorINSt7__cxx1112basic_stringIcSt11char_traitsIcESaIcEEESaIS7_EERNS_9CliParserE@Base 1.0~git20160320
 _ZN6mathic10HelpAction13performActionEv@Base 1.0~git20130827
 _ZN6mathic10HelpAction17displayActionHelpERNS_6ActionE@Base 1.0~git20130827
 _ZN6mathic10HelpAction18pushBackParametersERSt6vectorIPNS_12CliParameterESaIS3_EE@Base 1.0~git20130827
 _ZN6mathic10HelpActionC1Ev@Base 1.0~git20130827
 _ZN6mathic10HelpActionC2Ev@Base 1.0~git20130827
 _ZN6mathic10HelpActionD0Ev@Base 1.0~git20130827
 _ZN6mathic10HelpActionD1Ev@Base 1.0~git20130827
 _ZN6mathic10HelpActionD2Ev@Base 1.0~git20130827
 _ZN6mathic10throwErrorINS_20UnknownNameExceptionEEEvRKNSt7__cxx1112basic_stringIcSt11char_traitsIcESaIcEEE@Base 1.0~git20160320
 _ZN6mathic10throwErrorINS_22AmbiguousNameExceptionEEEvRKNSt7__cxx1112basic_stringIcSt11char_traitsIcESaIcEEE@Base 1.0~git20160320
 _ZN6mathic11NameFactoryIPvED1Ev@Base 1.0~git20130827
 _ZN6mathic11NameFactoryIPvED2Ev@Base 1.0~git20130827
 _ZN6mathic11displayNoteERKNSt7__cxx1112basic_stringIcSt11char_traitsIcESaIcEEE@Base 1.0~git20160320
 _ZN6mathic11reportErrorERKNSt7__cxx1112basic_stringIcSt11char_traitsIcESaIcEEE@Base 1.0~git20160320
 _ZN6mathic12CliParameter19appendToDescriptionERKNSt7__cxx1112basic_stringIcSt11char_traitsIcESaIcEEE@Base 1.0~git20160320
 _ZN6mathic12CliParameterC1ERKNSt7__cxx1112basic_stringIcSt11char_traitsIcESaIcEEES8_@Base 1.0~git20160320
 _ZN6mathic12CliParameterC2ERKNSt7__cxx1112basic_stringIcSt11char_traitsIcESaIcEEES8_@Base 1.0~git20160320
 _ZN6mathic12CliParameterD0Ev@Base 1.0~git20130827
 _ZN6mathic12CliParameterD1Ev@Base 1.0~git20130827
 _ZN6mathic12CliParameterD2Ev@Base 1.0~git20130827
 _ZN6mathic12displayErrorERKNSt7__cxx1112basic_stringIcSt11char_traitsIcESaIcEEE@Base 1.0~git20160320
 _ZN6mathic13BoolParameter15processArgumentERKNSt7__cxx1112basic_stringIcSt11char_traitsIcESaIcEEE@Base 1.0~git20160320
 _ZN6mathic13BoolParameterC1ERKNSt7__cxx1112basic_stringIcSt11char_traitsIcESaIcEEES8_b@Base 1.0~git20160320
 _ZN6mathic13BoolParameterC2ERKNSt7__cxx1112basic_stringIcSt11char_traitsIcESaIcEEES8_b@Base 1.0~git20160320
 _ZN6mathic13BoolParameterD0Ev@Base 1.0~git20130827
 _ZN6mathic13BoolParameterD1Ev@Base 1.0~git20130827
 _ZN6mathic13BoolParameterD2Ev@Base 1.0~git20130827
 _ZN6mathic13ColumnPrinter10oneDecimalB5cxx11Ed@Base 1.0~git20160320
 _ZN6mathic13ColumnPrinter11bytesInUnitB5cxx11Ey@Base 1.0~git20160320
 _ZN6mathic13ColumnPrinter11ratioDoubleB5cxx11Edd@Base 1.0~git20160320
 _ZN6mathic13ColumnPrinter12ratioIntegerB5cxx11Eyy@Base 1.0~git20160320
 _ZN6mathic13ColumnPrinter12withSIPrefixB5cxx11Ey@Base 1.0~git20160320
 _ZN6mathic13ColumnPrinter13percentDoubleB5cxx11Ed@Base 1.0~git20160320
 _ZN6mathic13ColumnPrinter13percentDoubleB5cxx11Edd@Base 1.0~git20160320
 _ZN6mathic13ColumnPrinter14percentIntegerB5cxx11Eyy@Base 1.0~git20160320
 _ZN6mathic13ColumnPrinter17repeatToEndOfLineEc@Base 1.0~git20130827
 (arch-bits=32)_ZN6mathic13ColumnPrinter17repeatToEndOfLineEcj@Base 1.0~git20130827
 (arch-bits=64)_ZN6mathic13ColumnPrinter17repeatToEndOfLineEcm@Base 1.0~git20130827
 _ZN6mathic13ColumnPrinter19percentIntegerFixedB5cxx11Eyy@Base 1.0~git20160320
 _ZN6mathic13ColumnPrinter7commafyB5cxx11Ey@Base 1.0~git20160320
 _ZN6mathic13ColumnPrinter9addColumnEbRKNSt7__cxx1112basic_stringIcSt11char_traitsIcESaIcEEES8_@Base 1.0~git20160320
 _ZN6mathic13ColumnPrinter9setPrefixERKNSt7__cxx1112basic_stringIcSt11char_traitsIcESaIcEEE@Base 1.0~git20160320
 (arch-bits=32)_ZN6mathic13ColumnPrinterC1Ej@Base 1.0~git20130827
 (arch-bits=64)_ZN6mathic13ColumnPrinterC1Em@Base 1.0~git20130827
 (arch-bits=32)_ZN6mathic13ColumnPrinterC2Ej@Base 1.0~git20130827
 (arch-bits=64)_ZN6mathic13ColumnPrinterC2Em@Base 1.0~git20130827
 _ZN6mathic13ColumnPrinterD1Ev@Base 1.0~git20130827
 _ZN6mathic13ColumnPrinterD2Ev@Base 1.0~git20130827
 (arch-bits=32)_ZN6mathic13ColumnPrinterixEj@Base 1.0~git20130827
 (arch-bits=64)_ZN6mathic13ColumnPrinterixEm@Base 1.0~git20130827
 _ZN6mathic15MathicExceptionD0Ev@Base 1.0~git20130827
 _ZN6mathic15MathicExceptionD1Ev@Base 1.0~git20130827
 _ZN6mathic15MathicExceptionD2Ev@Base 1.0~git20130827
 _ZN6mathic15StringParameter15processArgumentERKNSt7__cxx1112basic_stringIcSt11char_traitsIcESaIcEEE@Base 1.0~git20160320
 _ZN6mathic15StringParameterC1ERKNSt7__cxx1112basic_stringIcSt11char_traitsIcESaIcEEES8_S8_@Base 1.0~git20160320
 _ZN6mathic15StringParameterC2ERKNSt7__cxx1112basic_stringIcSt11char_traitsIcESaIcEEES8_S8_@Base 1.0~git20160320
 _ZN6mathic15StringParameterD0Ev@Base 1.0~git20130827
 _ZN6mathic15StringParameterD1Ev@Base 1.0~git20130827
 _ZN6mathic15StringParameterD2Ev@Base 1.0~git20130827
 _ZN6mathic16IntegerParameter15processArgumentERKNSt7__cxx1112basic_stringIcSt11char_traitsIcESaIcEEE@Base 1.0~git20160320
 _ZN6mathic16IntegerParameterC1ERKNSt7__cxx1112basic_stringIcSt11char_traitsIcESaIcEEES8_j@Base 1.0~git20160320
 _ZN6mathic16IntegerParameterC2ERKNSt7__cxx1112basic_stringIcSt11char_traitsIcESaIcEEES8_j@Base 1.0~git20160320
 _ZN6mathic16IntegerParameterD0Ev@Base 1.0~git20130827
 _ZN6mathic16IntegerParameterD1Ev@Base 1.0~git20130827
 _ZN6mathic16IntegerParameterD2Ev@Base 1.0~git20130827
 (arch=!arm64 !hppa)_ZN6mathic16createWithPrefixINS_6ActionEEESt10unique_ptrIT_St14default_deleteIS3_EERKNS_11NameFactoryIS3_EERKNSt7__cxx1112basic_stringIcSt11char_traitsIcESaIcEEE@Base 1.0~git20160320
 _ZN6mathic16displayExceptionERKSt9exception@Base 1.0~git20130827
 _ZN6mathic19reportInternalErrorERKNSt7__cxx1112basic_stringIcSt11char_traitsIcESaIcEEE@Base 1.0~git20160320
 _ZN6mathic19reportInternalErrorERKNSt7__cxx1112basic_stringIcSt11char_traitsIcESaIcEEEPKcj@Base 1.0~git20160320
 _ZN6mathic20UnknownNameExceptionD0Ev@Base 1.0~git20130827
 _ZN6mathic20UnknownNameExceptionD1Ev@Base 1.0~git20130827
 _ZN6mathic20UnknownNameExceptionD2Ev@Base 1.0~git20130827
 _ZN6mathic20displayInternalErrorERKNSt7__cxx1112basic_stringIcSt11char_traitsIcESaIcEEE@Base 1.0~git20160320
 _ZN6mathic20uniqueNameWithPrefixINS_6ActionEEENSt7__cxx1112basic_stringIcSt11char_traitsIcESaIcEEERKNS_11NameFactoryIT_EERKS7_@Base 1.0~git20160320
 _ZN6mathic20uniqueNameWithPrefixIPvEENSt7__cxx1112basic_stringIcSt11char_traitsIcESaIcEEERKNS_11NameFactoryIT_EERKS7_@Base 1.0~git20160320
 _ZN6mathic22AmbiguousNameExceptionD0Ev@Base 1.0~git20130827
 _ZN6mathic22AmbiguousNameExceptionD1Ev@Base 1.0~git20130827
 _ZN6mathic22AmbiguousNameExceptionD2Ev@Base 1.0~git20130827
 _ZN6mathic23InternalMathicExceptionD0Ev@Base 1.0~git20130827
 _ZN6mathic23InternalMathicExceptionD1Ev@Base 1.0~git20130827
 _ZN6mathic23InternalMathicExceptionD2Ev@Base 1.0~git20130827
 _ZN6mathic5printEP8_IO_FILERKNS_13ColumnPrinterE@Base 1.0~git20130827
 _ZN6mathic6Action13directOptionsESt6vectorINSt7__cxx1112basic_stringIcSt11char_traitsIcESaIcEEESaIS7_EERNS_9CliParserE@Base 1.0~git20160320
 _ZN6mathic6ActionD0Ev@Base 1.0~git20130827
 _ZN6mathic6ActionD1Ev@Base 1.0~git20130827
 _ZN6mathic6ActionD2Ev@Base 1.0~git20130827
 _ZN6mathic7displayERKNSt7__cxx1112basic_stringIcSt11char_traitsIcESaIcEEES7_@Base 1.0~git20160320
 _ZN6mathic9CliParser22createActionWithPrefixERKNSt7__cxx1112basic_stringIcSt11char_traitsIcESaIcEEE@Base 1.0~git20160320
 _ZN6mathic9CliParser5parseERKSt6vectorINSt7__cxx1112basic_stringIcSt11char_traitsIcESaIcEEESaIS7_EE@Base 1.0~git20160320
 _ZN6mathic9CliParser5parseEiPPc@Base 1.0~git20130827
 _ZN6mathic9CliParserC1Ev@Base 1.0~git20130827
 _ZN6mathic9CliParserC2Ev@Base 1.0~git20130827
 _ZN6mathiclsERSoRKNS_13ColumnPrinterE@Base 1.0~git20130827
 _ZNK6mathic10HelpAction11descriptionEv@Base 1.0~git20130827
 _ZNK6mathic10HelpAction12isHelpActionEv@Base 1.0~git20130827
 _ZNK6mathic10HelpAction16shortDescriptionEv@Base 1.0~git20130827
 _ZNK6mathic10HelpAction4nameEv@Base 1.0~git20130827
 _ZNK6mathic10HelpAction5topicB5cxx11Ev@Base 1.0~git20160320
 _ZNK6mathic11BitTriangle12getMemoryUseEv@Base 1.0~git20130827
 _ZNK6mathic11NameFactoryINS_6ActionEE15namesWithPrefixERKNSt7__cxx1112basic_stringIcSt11char_traitsIcESaIcEEERSt6vectorIS8_SaIS8_EE@Base 1.0~git20160320
 _ZNK6mathic13BoolParameter12argumentTypeB5cxx11Ev@Base 1.0~git20160320
 _ZNK6mathic13BoolParameter13valueAsStringB5cxx11Ev@Base 1.0~git20160320
 _ZNK6mathic13ColumnPrinter14getColumnCountEv@Base 1.0~git20130827
 _ZNK6mathic13ColumnPrinter5printERSo@Base 1.0~git20130827
 _ZNK6mathic15StringParameter12argumentTypeB5cxx11Ev@Base 1.0~git20160320
 _ZNK6mathic15StringParameter13valueAsStringB5cxx11Ev@Base 1.0~git20160320
 _ZNK6mathic16IntegerParameter12argumentTypeB5cxx11Ev@Base 1.0~git20160320
 _ZNK6mathic16IntegerParameter13valueAsStringB5cxx11Ev@Base 1.0~git20160320
 _ZNK6mathic5Timer15getMillisecondsEv@Base 1.0~git20130827
 _ZNK6mathic5Timer5printEP8_IO_FILE@Base 1.0~git20130827
 _ZNK6mathic5Timer5printERSo@Base 1.0~git20130827
 _ZNK6mathic6Action12isHelpActionEv@Base 1.0~git20130827
 _ZNK6mathic9CliParser29pushBackRegisteredActionNamesERSt6vectorINSt7__cxx1112basic_stringIcSt11char_traitsIcESaIcEEESaIS7_EE@Base 1.0~git20160320
 _ZNSt10unique_ptrIN6mathic13ColumnPrinter3ColESt14default_deleteIS2_EED1Ev@Base 1.0~git20160320
 _ZNSt10unique_ptrIN6mathic13ColumnPrinter3ColESt14default_deleteIS2_EED2Ev@Base 1.0~git20160320
 _ZNSt6vectorINSt7__cxx1112basic_stringIcSt11char_traitsIcESaIcEEESaIS5_EE19_M_emplace_back_auxIIRKS5_EEEvDpOT_@Base 1.0~git20160320
 _ZNSt6vectorINSt7__cxx1112basic_stringIcSt11char_traitsIcESaIcEEESaIS5_EE19_M_emplace_back_auxIJRKS5_EEEvDpOT_@Base 1.0~git20160320
 _ZNSt6vectorINSt7__cxx1112basic_stringIcSt11char_traitsIcESaIcEEESaIS5_EED1Ev@Base 1.0~git20160320
 _ZNSt6vectorINSt7__cxx1112basic_stringIcSt11char_traitsIcESaIcEEESaIS5_EED2Ev@Base 1.0~git20160320
 _ZNSt6vectorISt10unique_ptrIN6mathic13ColumnPrinter3ColESt14default_deleteIS3_EESaIS6_EE19_M_emplace_back_auxIIS6_EEEvDpOT_@Base 1.0~git20130827
 _ZNSt6vectorISt10unique_ptrIN6mathic13ColumnPrinter3ColESt14default_deleteIS3_EESaIS6_EE19_M_emplace_back_auxIJS6_EEEvDpOT_@Base 1.0~git20130827
 _ZNSt6vectorISt10unique_ptrIN6mathic13ColumnPrinter3ColESt14default_deleteIS3_EESaIS6_EED1Ev@Base 1.0~git20130827
 _ZNSt6vectorISt10unique_ptrIN6mathic13ColumnPrinter3ColESt14default_deleteIS3_EESaIS6_EED2Ev@Base 1.0~git20130827
 _ZNSt6vectorISt4pairINSt7__cxx1112basic_stringIcSt11char_traitsIcESaIcEEEPFSt10unique_ptrIPvSt14default_deleteIS8_EEvEESaISE_EE19_M_emplace_back_auxIISE_EEEvDpOT_@Base 1.0~git20160320
 _ZNSt6vectorISt4pairINSt7__cxx1112basic_stringIcSt11char_traitsIcESaIcEEEPFSt10unique_ptrIPvSt14default_deleteIS8_EEvEESaISE_EE19_M_emplace_back_auxIJSE_EEEvDpOT_@Base 1.0~git20160320
 _ZNSt7__cxx1115basic_stringbufIcSt11char_traitsIcESaIcEED0Ev@Base 1.0~git20160320
 _ZNSt7__cxx1115basic_stringbufIcSt11char_traitsIcESaIcEED1Ev@Base 1.0~git20160320
 _ZNSt7__cxx1115basic_stringbufIcSt11char_traitsIcESaIcEED2Ev@Base 1.0~git20160320
 (arch=any-amd64 any-i386 arm64 s390x)_ZSt11__make_heapIN9__gnu_cxx17__normal_iteratorIPNSt7__cxx1112basic_stringIcSt11char_traitsIcESaIcEEESt6vectorIS7_SaIS7_EEEENS0_5__ops15_Iter_less_iterEEvT_SF_T0_@Base 1.0~git20160320
 (arch-bits=32)_ZSt13__adjust_heapIN9__gnu_cxx17__normal_iteratorIPNSt7__cxx1112basic_stringIcSt11char_traitsIcESaIcEEESt6vectorIS7_SaIS7_EEEEiS7_NS0_5__ops15_Iter_less_iterEEvT_T0_SG_T1_T2_@Base 1.0~git20160320
 (arch-bits=64)_ZSt13__adjust_heapIN9__gnu_cxx17__normal_iteratorIPNSt7__cxx1112basic_stringIcSt11char_traitsIcESaIcEEESt6vectorIS7_SaIS7_EEEElS7_NS0_5__ops15_Iter_less_iterEEvT_T0_SG_T1_T2_@Base 1.0~git20160320
 (arch-bits=32)_ZSt13__adjust_heapIN9__gnu_cxx17__normal_iteratorIPPN6mathic12CliParameterESt6vectorIS4_SaIS4_EEEEiS4_NS0_5__ops15_Iter_comp_iterIPFbS4_S4_EEEEvT_T0_SG_T1_T2_@Base 1.0~git20130827
 (arch-bits=64)_ZSt13__adjust_heapIN9__gnu_cxx17__normal_iteratorIPPN6mathic12CliParameterESt6vectorIS4_SaIS4_EEEElS4_NS0_5__ops15_Iter_comp_iterIPFbS4_S4_EEEEvT_T0_SG_T1_T2_@Base 1.0~git20130827
 _ZSt16__insertion_sortIN9__gnu_cxx17__normal_iteratorIPNSt7__cxx1112basic_stringIcSt11char_traitsIcESaIcEEESt6vectorIS7_SaIS7_EEEENS0_5__ops15_Iter_less_iterEEvT_SF_T0_@Base 1.0~git20160320
 _ZSt16__insertion_sortIN9__gnu_cxx17__normal_iteratorIPPN6mathic12CliParameterESt6vectorIS4_SaIS4_EEEENS0_5__ops15_Iter_comp_iterIPFbS4_S4_EEEEvT_SF_T0_@Base 1.0~git20130827
 (arch-bits=32)_ZSt16__introsort_loopIN9__gnu_cxx17__normal_iteratorIPPN6mathic12CliParameterESt6vectorIS4_SaIS4_EEEEiNS0_5__ops15_Iter_comp_iterIPFbS4_S4_EEEEvT_SF_T0_T1_@Base 1.0~git20130827
 (arch-bits=64)_ZSt16__introsort_loopIN9__gnu_cxx17__normal_iteratorIPPN6mathic12CliParameterESt6vectorIS4_SaIS4_EEEElNS0_5__ops15_Iter_comp_iterIPFbS4_S4_EEEEvT_SF_T0_T1_@Base 1.0~git20130827
 (arch=any-amd64 any-i386 s390x)_ZSt25__unguarded_linear_insertIN9__gnu_cxx17__normal_iteratorIPNSt7__cxx1112basic_stringIcSt11char_traitsIcESaIcEEESt6vectorIS7_SaIS7_EEEENS0_5__ops14_Val_less_iterEEvT_T0_@Base 1.0~git20160320
 _ZSt9__find_ifIN9__gnu_cxx17__normal_iteratorIPNSt7__cxx1112basic_stringIcSt11char_traitsIcESaIcEEESt6vectorIS7_SaIS7_EEEENS0_5__ops16_Iter_equals_valIKS7_EEET_SH_SH_T0_St26random_access_iterator_tag@Base 1.0~git20160320
 (arch=any-amd64 any-i386 arm64 s390x)_ZStplIcSt11char_traitsIcESaIcEENSt7__cxx1112basic_stringIT_T0_T1_EEOS8_PKS5_@Base 1.0~git20160320
 (arch=any-amd64 any-i386 arm64 s390x)_ZStplIcSt11char_traitsIcESaIcEENSt7__cxx1112basic_stringIT_T0_T1_EEOS8_RKS8_@Base 1.0~git20160320
 (arch=any-amd64 any-i386 arm64 s390x)_ZStplIcSt11char_traitsIcESaIcEENSt7__cxx1112basic_stringIT_T0_T1_EEOS8_S5_@Base 1.0~git20160320
 (arch=any-amd64 any-i386 arm64 s390x)_ZStplIcSt11char_traitsIcESaIcEENSt7__cxx1112basic_stringIT_T0_T1_EEPKS5_OS8_@Base 1.0~git20160320
 _ZStplIcSt11char_traitsIcESaIcEENSt7__cxx1112basic_stringIT_T0_T1_EEPKS5_RKS8_@Base 1.0~git20160320
 _ZStplIcSt11char_traitsIcESaIcEENSt7__cxx1112basic_stringIT_T0_T1_EES5_RKS8_@Base 1.0~git20160320
 _ZTIN6mathic10HelpActionE@Base 1.0~git20130827
 _ZTIN6mathic12CliParameterE@Base 1.0~git20130827
 _ZTIN6mathic13BoolParameterE@Base 1.0~git20130827
 _ZTIN6mathic15MathicExceptionE@Base 1.0~git20130827
 _ZTIN6mathic15StringParameterE@Base 1.0~git20130827
 _ZTIN6mathic16IntegerParameterE@Base 1.0~git20130827
 _ZTIN6mathic20UnknownNameExceptionE@Base 1.0~git20130827
 _ZTIN6mathic22AmbiguousNameExceptionE@Base 1.0~git20130827
 _ZTIN6mathic23InternalMathicExceptionE@Base 1.0~git20130827
 _ZTIN6mathic6ActionE@Base 1.0~git20130827
 _ZTSN6mathic10HelpActionE@Base 1.0~git20130827
 _ZTSN6mathic12CliParameterE@Base 1.0~git20130827
 _ZTSN6mathic13BoolParameterE@Base 1.0~git20130827
 _ZTSN6mathic15MathicExceptionE@Base 1.0~git20130827
 _ZTSN6mathic15StringParameterE@Base 1.0~git20130827
 _ZTSN6mathic16IntegerParameterE@Base 1.0~git20130827
 _ZTSN6mathic20UnknownNameExceptionE@Base 1.0~git20130827
 _ZTSN6mathic22AmbiguousNameExceptionE@Base 1.0~git20130827
 _ZTSN6mathic23InternalMathicExceptionE@Base 1.0~git20130827
 _ZTSN6mathic6ActionE@Base 1.0~git20130827
 _ZTVN6mathic10HelpActionE@Base 1.0~git20130827
 _ZTVN6mathic12CliParameterE@Base 1.0~git20130827
 _ZTVN6mathic13BoolParameterE@Base 1.0~git20130827
 _ZTVN6mathic15MathicExceptionE@Base 1.0~git20130827
 _ZTVN6mathic15StringParameterE@Base 1.0~git20130827
 _ZTVN6mathic16IntegerParameterE@Base 1.0~git20130827
 _ZTVN6mathic20UnknownNameExceptionE@Base 1.0~git20130827
 _ZTVN6mathic22AmbiguousNameExceptionE@Base 1.0~git20130827
 _ZTVN6mathic23InternalMathicExceptionE@Base 1.0~git20130827
 _ZTVN6mathic6ActionE@Base 1.0~git20130827
 libmathicIsPresent@Base 1.0~git20130827
