libmathic.so.0 libmathic0 #MINVER#
 _ZN6mathic10HelpAction10staticNameEv@Base 1.0~git20130827
 _ZN6mathic10HelpAction13directOptionsESt6vectorISsSaISsEERNS_9CliParserE@Base 1.0~git20130827
 _ZN6mathic10HelpAction13performActionEv@Base 1.0~git20130827
 _ZN6mathic10HelpAction17displayActionHelpERNS_6ActionE@Base 1.0~git20130827
 _ZN6mathic10HelpAction18pushBackParametersERSt6vectorIPNS_12CliParameterESaIS3_EE@Base 1.0~git20130827
 _ZN6mathic10HelpActionC1Ev@Base 1.0~git20130827
 _ZN6mathic10HelpActionC2Ev@Base 1.0~git20130827
 _ZN6mathic10HelpActionD0Ev@Base 1.0~git20130827
 _ZN6mathic10HelpActionD1Ev@Base 1.0~git20130827
 _ZN6mathic10HelpActionD2Ev@Base 1.0~git20130827
 _ZN6mathic10throwErrorINS_20UnknownNameExceptionEEEvRKSs@Base 1.0~git20130827
 _ZN6mathic10throwErrorINS_22AmbiguousNameExceptionEEEvRKSs@Base 1.0~git20130827
 _ZN6mathic11NameFactoryIPvED1Ev@Base 1.0~git20130827
 _ZN6mathic11NameFactoryIPvED2Ev@Base 1.0~git20130827
 _ZN6mathic11displayNoteERKSs@Base 1.0~git20130827
 _ZN6mathic11reportErrorERKSs@Base 1.0~git20130827
 _ZN6mathic12CliParameter19appendToDescriptionERKSs@Base 1.0~git20130827
 _ZN6mathic12CliParameterC1ERKSsS2_@Base 1.0~git20130827
 _ZN6mathic12CliParameterC2ERKSsS2_@Base 1.0~git20130827
 _ZN6mathic12CliParameterD0Ev@Base 1.0~git20130827
 _ZN6mathic12CliParameterD1Ev@Base 1.0~git20130827
 _ZN6mathic12CliParameterD2Ev@Base 1.0~git20130827
 _ZN6mathic12displayErrorERKSs@Base 1.0~git20130827
 _ZN6mathic13BoolParameter15processArgumentERKSs@Base 1.0~git20130827
 _ZN6mathic13BoolParameterC1ERKSsS2_b@Base 1.0~git20130827
 _ZN6mathic13BoolParameterC2ERKSsS2_b@Base 1.0~git20130827
 _ZN6mathic13BoolParameterD0Ev@Base 1.0~git20130827
 _ZN6mathic13BoolParameterD1Ev@Base 1.0~git20130827
 _ZN6mathic13BoolParameterD2Ev@Base 1.0~git20130827
 _ZN6mathic13ColumnPrinter10oneDecimalEd@Base 1.0~git20130827
 _ZN6mathic13ColumnPrinter11bytesInUnitEy@Base 1.0~git20130827
 _ZN6mathic13ColumnPrinter11ratioDoubleEdd@Base 1.0~git20130827
 _ZN6mathic13ColumnPrinter12ratioIntegerEyy@Base 1.0~git20130827
 _ZN6mathic13ColumnPrinter12withSIPrefixEy@Base 1.0~git20130827
 _ZN6mathic13ColumnPrinter13percentDoubleEd@Base 1.0~git20130827
 _ZN6mathic13ColumnPrinter13percentDoubleEdd@Base 1.0~git20130827
 _ZN6mathic13ColumnPrinter14percentIntegerEyy@Base 1.0~git20130827
 _ZN6mathic13ColumnPrinter17repeatToEndOfLineEc@Base 1.0~git20130827
 (arch-bits=32)_ZN6mathic13ColumnPrinter17repeatToEndOfLineEcj@Base 1.0~git20130827
 (arch-bits=64)_ZN6mathic13ColumnPrinter17repeatToEndOfLineEcm@Base 1.0~git20130827
 _ZN6mathic13ColumnPrinter19percentIntegerFixedEyy@Base 1.0~git20130827
 _ZN6mathic13ColumnPrinter7commafyEy@Base 1.0~git20130827
 _ZN6mathic13ColumnPrinter9addColumnEbRKSsS2_@Base 1.0~git20130827
 _ZN6mathic13ColumnPrinter9setPrefixERKSs@Base 1.0~git20130827
 (arch-bits=32)_ZN6mathic13ColumnPrinterC1Ej@Base 1.0~git20130827
 (arch-bits=64)_ZN6mathic13ColumnPrinterC1Em@Base 1.0~git20130827
 (arch-bits=32)_ZN6mathic13ColumnPrinterC2Ej@Base 1.0~git20130827
 (arch-bits=64)_ZN6mathic13ColumnPrinterC2Em@Base 1.0~git20130827
 _ZN6mathic13ColumnPrinterD1Ev@Base 1.0~git20130827
 _ZN6mathic13ColumnPrinterD2Ev@Base 1.0~git20130827
 (arch-bits=32)_ZN6mathic13ColumnPrinterixEj@Base 1.0~git20130827
 (arch-bits=64)_ZN6mathic13ColumnPrinterixEm@Base 1.0~git20130827
 _ZN6mathic15MathicExceptionD0Ev@Base 1.0~git20130827
 _ZN6mathic15MathicExceptionD1Ev@Base 1.0~git20130827
 _ZN6mathic15MathicExceptionD2Ev@Base 1.0~git20130827
 _ZN6mathic15StringParameter15processArgumentERKSs@Base 1.0~git20130827
 _ZN6mathic15StringParameterC1ERKSsS2_S2_@Base 1.0~git20130827
 _ZN6mathic15StringParameterC2ERKSsS2_S2_@Base 1.0~git20130827
 _ZN6mathic15StringParameterD0Ev@Base 1.0~git20130827
 _ZN6mathic15StringParameterD1Ev@Base 1.0~git20130827
 _ZN6mathic15StringParameterD2Ev@Base 1.0~git20130827
 _ZN6mathic16IntegerParameter15processArgumentERKSs@Base 1.0~git20130827
 _ZN6mathic16IntegerParameterC1ERKSsS2_j@Base 1.0~git20130827
 _ZN6mathic16IntegerParameterC2ERKSsS2_j@Base 1.0~git20130827
 _ZN6mathic16IntegerParameterD0Ev@Base 1.0~git20130827
 _ZN6mathic16IntegerParameterD1Ev@Base 1.0~git20130827
 _ZN6mathic16IntegerParameterD2Ev@Base 1.0~git20130827
 _ZN6mathic16displayExceptionERKSt9exception@Base 1.0~git20130827
 _ZN6mathic19reportInternalErrorERKSs@Base 1.0~git20130827
 _ZN6mathic19reportInternalErrorERKSsPKcj@Base 1.0~git20130827
 _ZN6mathic20UnknownNameExceptionD0Ev@Base 1.0~git20130827
 _ZN6mathic20UnknownNameExceptionD1Ev@Base 1.0~git20130827
 _ZN6mathic20UnknownNameExceptionD2Ev@Base 1.0~git20130827
 _ZN6mathic20displayInternalErrorERKSs@Base 1.0~git20130827
 _ZN6mathic20uniqueNameWithPrefixINS_6ActionEEESsRKNS_11NameFactoryIT_EERKSs@Base 1.0~git20130827
 _ZN6mathic20uniqueNameWithPrefixIPvEESsRKNS_11NameFactoryIT_EERKSs@Base 1.0~git20130827
 _ZN6mathic22AmbiguousNameExceptionD0Ev@Base 1.0~git20130827
 _ZN6mathic22AmbiguousNameExceptionD1Ev@Base 1.0~git20130827
 _ZN6mathic22AmbiguousNameExceptionD2Ev@Base 1.0~git20130827
 _ZN6mathic23InternalMathicExceptionD0Ev@Base 1.0~git20130827
 _ZN6mathic23InternalMathicExceptionD1Ev@Base 1.0~git20130827
 _ZN6mathic23InternalMathicExceptionD2Ev@Base 1.0~git20130827
 _ZN6mathic5printEP8_IO_FILERKNS_13ColumnPrinterE@Base 1.0~git20130827
 _ZN6mathic6Action13directOptionsESt6vectorISsSaISsEERNS_9CliParserE@Base 1.0~git20130827
 _ZN6mathic6ActionD0Ev@Base 1.0~git20130827
 _ZN6mathic6ActionD1Ev@Base 1.0~git20130827
 _ZN6mathic6ActionD2Ev@Base 1.0~git20130827
 _ZN6mathic7displayERKSsS1_@Base 1.0~git20130827
 _ZN6mathic9CliParser22createActionWithPrefixERKSs@Base 1.0~git20130827
 _ZN6mathic9CliParser5parseERKSt6vectorISsSaISsEE@Base 1.0~git20130827
 _ZN6mathic9CliParser5parseEiPPc@Base 1.0~git20130827
 _ZN6mathic9CliParserC1Ev@Base 1.0~git20130827
 _ZN6mathic9CliParserC2Ev@Base 1.0~git20130827
 _ZN6mathiclsERSoRKNS_13ColumnPrinterE@Base 1.0~git20130827
 _ZNK6mathic10HelpAction11descriptionEv@Base 1.0~git20130827
 _ZNK6mathic10HelpAction12isHelpActionEv@Base 1.0~git20130827
 _ZNK6mathic10HelpAction16shortDescriptionEv@Base 1.0~git20130827
 _ZNK6mathic10HelpAction4nameEv@Base 1.0~git20130827
 _ZNK6mathic10HelpAction5topicEv@Base 1.0~git20130827
 _ZNK6mathic11BitTriangle12getMemoryUseEv@Base 1.0~git20130827
 _ZNK6mathic11NameFactoryINS_6ActionEE15namesWithPrefixERKSsRSt6vectorISsSaISsEE@Base 1.0~git20130827
 _ZNK6mathic11NameFactoryIPvE15namesWithPrefixERKSsRSt6vectorISsSaISsEE@Base 1.0~git20130827
 _ZNK6mathic13BoolParameter12argumentTypeEv@Base 1.0~git20130827
 _ZNK6mathic13BoolParameter13valueAsStringEv@Base 1.0~git20130827
 _ZNK6mathic13ColumnPrinter14getColumnCountEv@Base 1.0~git20130827
 _ZNK6mathic13ColumnPrinter5printERSo@Base 1.0~git20130827
 _ZNK6mathic15StringParameter12argumentTypeEv@Base 1.0~git20130827
 _ZNK6mathic15StringParameter13valueAsStringEv@Base 1.0~git20130827
 _ZNK6mathic16IntegerParameter12argumentTypeEv@Base 1.0~git20130827
 _ZNK6mathic16IntegerParameter13valueAsStringEv@Base 1.0~git20130827
 _ZNK6mathic5Timer15getMillisecondsEv@Base 1.0~git20130827
 _ZNK6mathic5Timer5printEP8_IO_FILE@Base 1.0~git20130827
 _ZNK6mathic5Timer5printERSo@Base 1.0~git20130827
 _ZNK6mathic6Action12isHelpActionEv@Base 1.0~git20130827
 _ZNK6mathic9CliParser29pushBackRegisteredActionNamesERSt6vectorISsSaISsEE@Base 1.0~git20130827
 _ZNSs12_S_constructIPcEES0_T_S1_RKSaIcESt20forward_iterator_tag@Base 1.0~git20130827
 _ZNSt12_Destroy_auxILb0EE9__destroyIPSsEEvT_S3_@Base 1.0~git20130827
 _ZNSt15basic_stringbufIcSt11char_traitsIcESaIcEED0Ev@Base 1.0~git20130827
 _ZNSt15basic_stringbufIcSt11char_traitsIcESaIcEED1Ev@Base 1.0~git20130827
 _ZNSt15basic_stringbufIcSt11char_traitsIcESaIcEED2Ev@Base 1.0~git20130827
 _ZNSt6vectorISsSaISsEE19_M_emplace_back_auxIIRKSsEEEvDpOT_@Base 1.0~git20130827
 _ZNSt6vectorISsSaISsEE19_M_emplace_back_auxIJRKSsEEEvDpOT_@Base 1.0~git20130827
 _ZNSt6vectorISsSaISsEED1Ev@Base 1.0~git20130827
 _ZNSt6vectorISsSaISsEED2Ev@Base 1.0~git20130827
 _ZNSt6vectorISt10unique_ptrIN6mathic13ColumnPrinter3ColESt14default_deleteIS3_EESaIS6_EE19_M_emplace_back_auxIIS6_EEEvDpOT_@Base 1.0~git20130827
 _ZNSt6vectorISt10unique_ptrIN6mathic13ColumnPrinter3ColESt14default_deleteIS3_EESaIS6_EE19_M_emplace_back_auxIJS6_EEEvDpOT_@Base 1.0~git20130827
 _ZNSt6vectorISt10unique_ptrIN6mathic13ColumnPrinter3ColESt14default_deleteIS3_EESaIS6_EED1Ev@Base 1.0~git20130827
 _ZNSt6vectorISt10unique_ptrIN6mathic13ColumnPrinter3ColESt14default_deleteIS3_EESaIS6_EED2Ev@Base 1.0~git20130827
 _ZNSt6vectorISt4pairISsPFSt10unique_ptrIPvSt14default_deleteIS2_EEvEESaIS8_EE19_M_emplace_back_auxIIS8_EEEvDpOT_@Base 1.0~git20130827
 _ZNSt6vectorISt4pairISsPFSt10unique_ptrIPvSt14default_deleteIS2_EEvEESaIS8_EE19_M_emplace_back_auxIJS8_EEEvDpOT_@Base 1.0~git20130827
 _ZSt11__make_heapIN9__gnu_cxx17__normal_iteratorIPSsSt6vectorISsSaISsEEEENS0_5__ops15_Iter_less_iterEEvT_S9_T0_@Base 1.0~git20130827
 (arch-bits=32)_ZSt13__adjust_heapIN9__gnu_cxx17__normal_iteratorIPPN6mathic12CliParameterESt6vectorIS4_SaIS4_EEEEiS4_NS0_5__ops15_Iter_comp_iterIPFbS4_S4_EEEEvT_T0_SG_T1_T2_@Base 1.0~git20130827
 (arch-bits=64)_ZSt13__adjust_heapIN9__gnu_cxx17__normal_iteratorIPPN6mathic12CliParameterESt6vectorIS4_SaIS4_EEEElS4_NS0_5__ops15_Iter_comp_iterIPFbS4_S4_EEEEvT_T0_SG_T1_T2_@Base 1.0~git20130827
 (arch-bits=32)_ZSt13__adjust_heapIN9__gnu_cxx17__normal_iteratorIPSsSt6vectorISsSaISsEEEEiSsNS0_5__ops15_Iter_less_iterEEvT_T0_SA_T1_T2_@Base 1.0~git20130827
 (arch-bits=64)_ZSt13__adjust_heapIN9__gnu_cxx17__normal_iteratorIPSsSt6vectorISsSaISsEEEElSsNS0_5__ops15_Iter_less_iterEEvT_T0_SA_T1_T2_@Base 1.0~git20130827
 _ZSt16__insertion_sortIN9__gnu_cxx17__normal_iteratorIPPN6mathic12CliParameterESt6vectorIS4_SaIS4_EEEENS0_5__ops15_Iter_comp_iterIPFbS4_S4_EEEEvT_SF_T0_@Base 1.0~git20130827
 _ZSt16__insertion_sortIN9__gnu_cxx17__normal_iteratorIPSsSt6vectorISsSaISsEEEENS0_5__ops15_Iter_less_iterEEvT_S9_T0_@Base 1.0~git20130827
 (arch-bits=32)_ZSt16__introsort_loopIN9__gnu_cxx17__normal_iteratorIPPN6mathic12CliParameterESt6vectorIS4_SaIS4_EEEEiNS0_5__ops15_Iter_comp_iterIPFbS4_S4_EEEEvT_SF_T0_T1_@Base 1.0~git20130827
 (arch-bits=64)_ZSt16__introsort_loopIN9__gnu_cxx17__normal_iteratorIPPN6mathic12CliParameterESt6vectorIS4_SaIS4_EEEElNS0_5__ops15_Iter_comp_iterIPFbS4_S4_EEEEvT_SF_T0_T1_@Base 1.0~git20130827
 _ZSt25__unguarded_linear_insertIN9__gnu_cxx17__normal_iteratorIPPN6mathic12CliParameterESt6vectorIS4_SaIS4_EEEENS0_5__ops14_Val_comp_iterIPFbS4_S4_EEEEvT_T0_@Base 1.0~git20130827
 _ZSt25__unguarded_linear_insertIN9__gnu_cxx17__normal_iteratorIPSsSt6vectorISsSaISsEEEENS0_5__ops14_Val_less_iterEEvT_T0_@Base 1.0~git20130827
 _ZSt9__find_ifIN9__gnu_cxx17__normal_iteratorIPSsSt6vectorISsSaISsEEEENS0_5__ops16_Iter_equals_valIKSsEEET_SB_SB_T0_St26random_access_iterator_tag@Base 1.0~git20130827
 _ZStplIcSt11char_traitsIcESaIcEESbIT_T0_T1_EPKS3_RKS6_@Base 1.0~git20130827
 _ZStplIcSt11char_traitsIcESaIcEESbIT_T0_T1_ES3_RKS6_@Base 1.0~git20130827
 _ZTIN6mathic10HelpActionE@Base 1.0~git20130827
 _ZTIN6mathic12CliParameterE@Base 1.0~git20130827
 _ZTIN6mathic13BoolParameterE@Base 1.0~git20130827
 _ZTIN6mathic15MathicExceptionE@Base 1.0~git20130827
 _ZTIN6mathic15StringParameterE@Base 1.0~git20130827
 _ZTIN6mathic16IntegerParameterE@Base 1.0~git20130827
 _ZTIN6mathic20UnknownNameExceptionE@Base 1.0~git20130827
 _ZTIN6mathic22AmbiguousNameExceptionE@Base 1.0~git20130827
 _ZTIN6mathic23InternalMathicExceptionE@Base 1.0~git20130827
 _ZTIN6mathic6ActionE@Base 1.0~git20130827
 _ZTSN6mathic10HelpActionE@Base 1.0~git20130827
 _ZTSN6mathic12CliParameterE@Base 1.0~git20130827
 _ZTSN6mathic13BoolParameterE@Base 1.0~git20130827
 _ZTSN6mathic15MathicExceptionE@Base 1.0~git20130827
 _ZTSN6mathic15StringParameterE@Base 1.0~git20130827
 _ZTSN6mathic16IntegerParameterE@Base 1.0~git20130827
 _ZTSN6mathic20UnknownNameExceptionE@Base 1.0~git20130827
 _ZTSN6mathic22AmbiguousNameExceptionE@Base 1.0~git20130827
 _ZTSN6mathic23InternalMathicExceptionE@Base 1.0~git20130827
 _ZTSN6mathic6ActionE@Base 1.0~git20130827
 _ZTVN6mathic10HelpActionE@Base 1.0~git20130827
 _ZTVN6mathic12CliParameterE@Base 1.0~git20130827
 _ZTVN6mathic13BoolParameterE@Base 1.0~git20130827
 _ZTVN6mathic15MathicExceptionE@Base 1.0~git20130827
 _ZTVN6mathic15StringParameterE@Base 1.0~git20130827
 _ZTVN6mathic16IntegerParameterE@Base 1.0~git20130827
 _ZTVN6mathic20UnknownNameExceptionE@Base 1.0~git20130827
 _ZTVN6mathic22AmbiguousNameExceptionE@Base 1.0~git20130827
 _ZTVN6mathic23InternalMathicExceptionE@Base 1.0~git20130827
 _ZTVN6mathic6ActionE@Base 1.0~git20130827
 libmathicIsPresent@Base 1.0~git20130827
